target datalayout = "e-m:e-p270:32:32-p271:32:32-p272:64:64-i64:64-i128:128-f80:128-n8:16:32:64-S128"
target triple = "x86_64-pc-linux-gnu"

%class.BCEscapeAnalyzer = type <{ ptr, i8, [7 x i8], ptr, ptr, i32, [4 x i8], %class.VectorSet, %class.VectorSet, %class.VectorSet, ptr, i8, i8, i8, i8, [4 x i8], %class.GrowableArray, ptr, ptr, i32, [4 x i8] }>
%class.VectorSet = type { i32, ptr, i32, ptr }
%class.GrowableArray = type { %class.GrowableArrayWithAllocator, %class.GrowableArrayMetadata }
%class.GrowableArrayWithAllocator = type { %class.GrowableArrayView }
%class.GrowableArrayView = type { %class.GrowableArrayBase, ptr }
%class.GrowableArrayBase = type { i32, i32 }
%class.GrowableArrayMetadata = type { i64 }

; Function Attrs: mustprogress nounwind uwtable
define linkonce_odr hidden noundef i32 @_Z10align_downIiiTnNSt9enable_ifIXcvbsr3std11is_integralIT_EE5valueEiE4typeELi0EES1_S1_T0_(i32 noundef %0, i32 noundef %1) #1 comdat {
  %3 = alloca i32, align 4
  %4 = alloca i32, align 4
  %5 = alloca i32, align 4
  store i32 %0, ptr %3, align 4
  store i32 %1, ptr %4, align 4
  %6 = load i32, ptr %3, align 4
  %7 = load i32, ptr %4, align 4
  %8 = call noundef i32 @_ZL14alignment_maskIiTnNSt9enable_ifIXcvbsr3std11is_integralIT_EE5valueEiE4typeELi0EES1_S1_(i32 noundef %7)
  %9 = xor i32 %8, -1
  %10 = and i32 %6, %9
  store i32 %10, ptr %5, align 4
  %11 = load i32, ptr %5, align 4
  ret i32 %11
}

; Function Attrs: mustprogress nounwind uwtable
define linkonce_odr hidden noundef i32 @_Z12checked_castIiiET_T0_(i32 noundef %0) #1 comdat {
  %2 = alloca i32, align 4
  %3 = alloca i32, align 4
  store i32 %0, ptr %2, align 4
  %4 = load i32, ptr %2, align 4
  store i32 %4, ptr %3, align 4
  %5 = load i32, ptr %3, align 4
  ret i32 %5
}

; Function Attrs: mustprogress nounwind uwtable
define internal noundef i32 @_ZL14alignment_maskIiTnNSt9enable_ifIXcvbsr3std11is_integralIT_EE5valueEiE4typeELi0EES1_S1_(i32 noundef %0) #1 {
  %2 = alloca i32, align 4
  store i32 %0, ptr %2, align 4
  %3 = load i32, ptr %2, align 4
  %4 = sub nsw i32 %3, 1
  ret i32 %4
}

; Function Attrs: mustprogress nounwind uwtable
define linkonce_odr hidden noundef i32 @_Z8align_upIiiTnNSt9enable_ifIXcvbsr3std11is_integralIT_EE5valueEiE4typeELi0EES1_S1_T0_(i32 noundef %0, i32 noundef %1) #1 comdat {
  %3 = alloca i32, align 4
  %4 = alloca i32, align 4
  %5 = alloca i32, align 4
  store i32 %0, ptr %3, align 4
  store i32 %1, ptr %4, align 4
  %6 = load i32, ptr %3, align 4
  %7 = load i32, ptr %4, align 4
  %8 = call noundef i32 @_ZL14alignment_maskIiTnNSt9enable_ifIXcvbsr3std11is_integralIT_EE5valueEiE4typeELi0EES1_S1_(i32 noundef %7)
  %9 = add nsw i32 %6, %8
  %10 = call noundef i32 @_Z12checked_castIiiET_T0_(i32 noundef %9)
  store i32 %10, ptr %5, align 4
  %11 = load i32, ptr %5, align 4
  %12 = load i32, ptr %4, align 4
  %13 = call noundef i32 @_Z10align_downIiiTnNSt9enable_ifIXcvbsr3std11is_integralIT_EE5valueEiE4typeELi0EES1_S1_T0_(i32 noundef %11, i32 noundef %12)
  ret i32 %13
}

; Function Attrs: mustprogress nounwind uwtable
define hidden void @_ZN16BCEscapeAnalyzer16set_arg_modifiedEiii(ptr noundef nonnull align 8 dereferenceable(196) %0, i32 noundef %1, i32 noundef %2, i32 noundef %3) #1 align 2 {
  %5 = alloca ptr, align 8
  %6 = alloca i32, align 4
  %7 = alloca i32, align 4
  %8 = alloca i32, align 4
  %9 = alloca i32, align 4
  %10 = alloca i32, align 4
  %11 = alloca i32, align 4
  store ptr %0, ptr %5, align 8
  store i32 %1, ptr %6, align 4
  store i32 %2, ptr %7, align 4
  store i32 %3, ptr %8, align 4
  %12 = load ptr, ptr %5, align 8
  %13 = load i32, ptr %7, align 4
  %14 = icmp eq i32 %13, -1
  br i1 %14, label %15, label %21

15:                                               ; preds = %4
  %16 = getelementptr inbounds %class.BCEscapeAnalyzer, ptr %12, i32 0, i32 10
  %17 = load ptr, ptr %16, align 8
  %18 = load i32, ptr %6, align 4
  %19 = sext i32 %18 to i64
  %20 = getelementptr inbounds i32, ptr %17, i64 %19
  store i32 -1, ptr %20, align 4
  br label %55

21:                                               ; preds = %4
  %22 = load i32, ptr %7, align 4
  %23 = sdiv i32 %22, 8
  store i32 %23, ptr %9, align 4
  %24 = load i32, ptr %7, align 4
  %25 = load i32, ptr %8, align 4
  %26 = add nsw i32 %24, %25
  %27 = call noundef i32 @_Z8align_upIiiTnNSt9enable_ifIXcvbsr3std11is_integralIT_EE5valueEiE4typeELi0EES1_S1_T0_(i32 noundef %26, i32 noundef 8)
  %28 = sdiv i32 %27, 8
  store i32 %28, ptr %10, align 4
  %29 = load i32, ptr %9, align 4
  %30 = icmp sgt i32 %29, 31
  br i1 %30, label %31, label %32

31:                                               ; preds = %21
  store i32 31, ptr %9, align 4
  br label %32

32:                                               ; preds = %31, %21
  %33 = load i32, ptr %10, align 4
  %34 = icmp sgt i32 %33, 32
  br i1 %34, label %35, label %36

35:                                               ; preds = %32
  store i32 32, ptr %10, align 4
  br label %36

36:                                               ; preds = %35, %32
  %37 = load i32, ptr %9, align 4
  store i32 %37, ptr %11, align 4
  br label %38

38:                                               ; preds = %52, %36
  %39 = load i32, ptr %11, align 4
  %40 = load i32, ptr %10, align 4
  %41 = icmp slt i32 %39, %40
  br i1 %41, label %42, label %55

42:                                               ; preds = %38
  %43 = load i32, ptr %11, align 4
  %44 = shl i32 1, %43
  %45 = getelementptr inbounds %class.BCEscapeAnalyzer, ptr %12, i32 0, i32 10
  %46 = load ptr, ptr %45, align 8
  %47 = load i32, ptr %6, align 4
  %48 = sext i32 %47 to i64
  %49 = getelementptr inbounds i32, ptr %46, i64 %48
  %50 = load i32, ptr %49, align 4
  %51 = or i32 %50, %44
  store i32 %51, ptr %49, align 4
  br label %52

52:                                               ; preds = %42
  %53 = load i32, ptr %11, align 4
  %54 = add nsw i32 %53, 1
  store i32 %54, ptr %11, align 4
  br label %38, !llvm.loop !13

55:                                               ; preds = %38, %15
  ret void
}