; Function Attrs: mustprogress nofree norecurse nosync nounwind memory(readwrite, inaccessiblemem: none) uwtable
define hidden void @_ZN16BCEscapeAnalyzer16set_arg_modifiedEiii(ptr nocapture noundef nonnull readonly align 8 dereferenceable(196) %0, i32 noundef %1, i32 noundef %2, i32 noundef %3) local_unnamed_addr #3 align 2 {
  %5 = icmp eq i32 %2, -1
  br i1 %5, label %6, label %11

6:                                                ; preds = %4
  %7 = getelementptr inbounds i8, ptr %0, i64 136
  %8 = load ptr, ptr %7, align 8
  %9 = sext i32 %1 to i64
  %10 = getelementptr inbounds i32, ptr %8, i64 %9
  store i32 -1, ptr %10, align 4
  br label %.loopexit

11:                                               ; preds = %4
  %12 = sdiv i32 %2, 8
  %13 = add i32 %2, 7
  %14 = add i32 %13, %3
  %15 = ashr i32 %14, 3
  %spec.store.select = tail call i32 @llvm.smin.i32(i32 %12, i32 31)
  %spec.store.select1 = tail call i32 @llvm.smin.i32(i32 %15, i32 32)
  %16 = icmp sgt i32 %15, %spec.store.select
  br i1 %16, label %.lr.ph, label %.loopexit

.lr.ph:                                           ; preds = %11
  %17 = getelementptr inbounds i8, ptr %0, i64 136
  %18 = sext i32 %1 to i64
  br label %19

19:                                               ; preds = %.lr.ph, %19
  %.015 = phi i32 [ %spec.store.select, %.lr.ph ], [ %25, %19 ]
  %20 = shl nuw i32 1, %.015
  %21 = load ptr, ptr %17, align 8
  %22 = getelementptr inbounds i32, ptr %21, i64 %18
  %23 = load i32, ptr %22, align 4
  %24 = or i32 %23, %20
  store i32 %24, ptr %22, align 4
  %25 = add nsw i32 %.015, 1
  %26 = icmp slt i32 %25, %spec.store.select1
  br i1 %26, label %19, label %.loopexit, !llvm.loop !13

.loopexit:                                        ; preds = %19, %11, %6
  ret void
}